(dp0
Vengine
p1
Vpdflatex
p2
sVpackages
p3
c__builtin__
set
p4
((lp5
Vgeometry
p6
aVindentfirst
p7
atp8
Rp9
sVfiles_with_guttermarks
p10
g4
((lp11
S'presentation.tex'
p12
aV/Users/WangQL/OneDrive/Documents/Lab/deeplearning for se/deepLearning/myPPT/presentation.tex
p13
atp14
Rp15
sVsynctex
p16
I01
s.